target datalayout = "e-m:e-p270:32:32-p271:32:32-p272:64:64-i64:64-i128:128-f80:128-n8:16:32:64-S128"
target triple = "x86_64-pc-linux-gnu"

; Function Attrs: inlinehint mustprogress uwtable
define linkonce_odr hidden void @_ZN7Imf_3_48StreamIO10writeCharsERNS_7OStreamEPKci(ptr noundef nonnull align 8 dereferenceable(40) %0, ptr noundef %1, i32 noundef %2) #11 comdat align 2 {
  %4 = alloca ptr, align 8
  %5 = alloca ptr, align 8
  %6 = alloca i32, align 4
  store ptr %0, ptr %4, align 8, !tbaa !16
  store ptr %1, ptr %5, align 8, !tbaa !10
  store i32 %2, ptr %6, align 4, !tbaa !20
  %7 = load ptr, ptr %4, align 8, !tbaa !16
  %8 = load ptr, ptr %5, align 8, !tbaa !10
  %9 = load i32, ptr %6, align 4, !tbaa !20
  %10 = load ptr, ptr %7, align 8, !tbaa !14
  %11 = getelementptr inbounds ptr, ptr %10, i64 2
  %12 = load ptr, ptr %11, align 8
  call void %12(ptr noundef nonnull align 8 dereferenceable(40) %7, ptr noundef %8, i32 noundef %9)
  ret void
}

; Function Attrs: inlinehint mustprogress uwtable
define linkonce_odr hidden void @_ZN7Imf_3_43Xdr16writeSignedCharsINS_8StreamIOENS_7OStreamEEEvRT0_PKai(ptr noundef nonnull align 8 dereferenceable(40) %0, ptr noundef %1, i32 noundef %2) #11 comdat {
  %4 = alloca ptr, align 8
  %5 = alloca ptr, align 8
  %6 = alloca i32, align 4
  store ptr %0, ptr %4, align 8, !tbaa !16
  store ptr %1, ptr %5, align 8, !tbaa !10
  store i32 %2, ptr %6, align 4, !tbaa !20
  %7 = load ptr, ptr %4, align 8, !tbaa !16
  %8 = load ptr, ptr %5, align 8, !tbaa !10
  %9 = load i32, ptr %6, align 4, !tbaa !20
  call void @_ZN7Imf_3_48StreamIO10writeCharsERNS_7OStreamEPKci(ptr noundef nonnull align 8 dereferenceable(40) %7, ptr noundef %8, i32 noundef %9)
  ret void
}

; Function Attrs: mustprogress uwtable
define linkonce_odr hidden void @_ZN7Imf_3_43Xdr5writeINS_8StreamIOENS_7OStreamEEEvRT0_i(ptr noundef nonnull align 8 dereferenceable(40) %0, i32 noundef %1) #6 comdat {
  %3 = alloca ptr, align 8
  %4 = alloca i32, align 4
  %5 = alloca [4 x i8], align 1
  store ptr %0, ptr %3, align 8, !tbaa !16
  store i32 %1, ptr %4, align 4, !tbaa !20
  call void @llvm.lifetime.start.p0(i64 4, ptr %5) #3
  %6 = load i32, ptr %4, align 4, !tbaa !20
  %7 = trunc i32 %6 to i8
  %8 = getelementptr inbounds [4 x i8], ptr %5, i64 0, i64 0
  store i8 %7, ptr %8, align 1, !tbaa !22
  %9 = load i32, ptr %4, align 4, !tbaa !20
  %10 = ashr i32 %9, 8
  %11 = trunc i32 %10 to i8
  %12 = getelementptr inbounds [4 x i8], ptr %5, i64 0, i64 1
  store i8 %11, ptr %12, align 1, !tbaa !22
  %13 = load i32, ptr %4, align 4, !tbaa !20
  %14 = ashr i32 %13, 16
  %15 = trunc i32 %14 to i8
  %16 = getelementptr inbounds [4 x i8], ptr %5, i64 0, i64 2
  store i8 %15, ptr %16, align 1, !tbaa !22
  %17 = load i32, ptr %4, align 4, !tbaa !20
  %18 = ashr i32 %17, 24
  %19 = trunc i32 %18 to i8
  %20 = getelementptr inbounds [4 x i8], ptr %5, i64 0, i64 3
  store i8 %19, ptr %20, align 1, !tbaa !22
  %21 = load ptr, ptr %3, align 8, !tbaa !16
  %22 = getelementptr inbounds [4 x i8], ptr %5, i64 0, i64 0
  call void @_ZN7Imf_3_43Xdr16writeSignedCharsINS_8StreamIOENS_7OStreamEEEvRT0_PKai(ptr noundef nonnull align 8 dereferenceable(40) %21, ptr noundef %22, i32 noundef 4)
  call void @llvm.lifetime.end.p0(i64 4, ptr %5) #3
  ret void
}

; Function Attrs: mustprogress uwtable
define void @_ZN7Imf_3_417GenericOutputFile31writeMagicNumberAndVersionFieldERNS_7OStreamERKNS_6HeaderE(ptr noundef nonnull align 8 dereferenceable(8) %0, ptr noundef nonnull align 8 dereferenceable(40) %1, ptr noundef nonnull align 8 dereferenceable(49) %2) #6 align 2 {
  %4 = alloca ptr, align 8
  %5 = alloca ptr, align 8
  %6 = alloca ptr, align 8
  %7 = alloca i32, align 4
  store ptr %0, ptr %4, align 8, !tbaa !12
  store ptr %1, ptr %5, align 8, !tbaa !16
  store ptr %2, ptr %6, align 8, !tbaa !18
  %8 = load ptr, ptr %5, align 8, !tbaa !16
  call void @_ZN7Imf_3_43Xdr5writeINS_8StreamIOENS_7OStreamEEEvRT0_i(ptr noundef nonnull align 8 dereferenceable(40) %8, i32 noundef 20000630)
  call void @llvm.lifetime.start.p0(i64 4, ptr %7) #3
  store i32 2, ptr %7, align 4, !tbaa !20
  %9 = load ptr, ptr %6, align 8, !tbaa !18
  %10 = call noundef zeroext i1 @_ZNK7Imf_3_46Header7hasTypeEv(ptr noundef nonnull align 8 dereferenceable(49) %9)
  br i1 %10, label %11, label %18

11:                                               ; preds = %3
  %12 = load ptr, ptr %6, align 8, !tbaa !18
  %13 = call noundef nonnull align 8 dereferenceable(32) ptr @_ZNK7Imf_3_46Header4typeB5cxx11Ev(ptr noundef nonnull align 8 dereferenceable(49) %12)
  %14 = call noundef zeroext i1 @_ZN7Imf_3_410isDeepDataERKNSt7__cxx1112basic_stringIcSt11char_traitsIcESaIcEEE(ptr noundef nonnull align 8 dereferenceable(32) %13)
  br i1 %14, label %15, label %18

15:                                               ; preds = %11
  %16 = load i32, ptr %7, align 4, !tbaa !20
  %17 = or i32 %16, 2048
  store i32 %17, ptr %7, align 4, !tbaa !20
  br label %25

18:                                               ; preds = %11, %3
  %19 = load ptr, ptr %6, align 8, !tbaa !18
  %20 = call noundef zeroext i1 @_ZNK7Imf_3_46Header18hasTileDescriptionEv(ptr noundef nonnull align 8 dereferenceable(49) %19)
  br i1 %20, label %21, label %24

21:                                               ; preds = %18
  %22 = load i32, ptr %7, align 4, !tbaa !20
  %23 = or i32 %22, 512
  store i32 %23, ptr %7, align 4, !tbaa !20
  br label %24

24:                                               ; preds = %21, %18
  br label %25

25:                                               ; preds = %24, %15
  %26 = load ptr, ptr %6, align 8, !tbaa !18
  %27 = call noundef zeroext i1 @_ZN7Imf_3_413usesLongNamesERKNS_6HeaderE(ptr noundef nonnull align 8 dereferenceable(49) %26)
  br i1 %27, label %28, label %31

28:                                               ; preds = %25
  %29 = load i32, ptr %7, align 4, !tbaa !20
  %30 = or i32 %29, 1024
  store i32 %30, ptr %7, align 4, !tbaa !20
  br label %31

31:                                               ; preds = %28, %25
  %32 = load ptr, ptr %5, align 8, !tbaa !16
  %33 = load i32, ptr %7, align 4, !tbaa !20
  call void @_ZN7Imf_3_43Xdr5writeINS_8StreamIOENS_7OStreamEEEvRT0_i(ptr noundef nonnull align 8 dereferenceable(40) %32, i32 noundef %33)
  call void @llvm.lifetime.end.p0(i64 4, ptr %7) #3
  ret void
}