; Function Attrs: mustprogress uwtable
define void @_ZN7Imf_3_417GenericOutputFile31writeMagicNumberAndVersionFieldERNS_7OStreamERKNS_6HeaderE(ptr noundef nonnull readnone align 8 captures(none) dereferenceable(8) %0, ptr noundef nonnull align 8 dereferenceable(40) %1, ptr noundef nonnull align 8 dereferenceable(49) %2) local_unnamed_addr #8 align 2 {
  %4 = alloca [4 x i8], align 1
  %5 = alloca [4 x i8], align 1
  call void @llvm.lifetime.start.p0(i64 4, ptr nonnull %5) #12
  store i8 118, ptr %5, align 1, !tbaa !6
  %6 = getelementptr inbounds nuw i8, ptr %5, i64 1
  store i8 47, ptr %6, align 1, !tbaa !6
  %7 = getelementptr inbounds nuw i8, ptr %5, i64 2
  store i8 49, ptr %7, align 1, !tbaa !6
  %8 = getelementptr inbounds nuw i8, ptr %5, i64 3
  store i8 1, ptr %8, align 1, !tbaa !6
  %9 = load ptr, ptr %1, align 8, !tbaa !3
  %10 = getelementptr inbounds nuw i8, ptr %9, i64 16
  %11 = load ptr, ptr %10, align 8
  call void %11(ptr noundef nonnull align 8 dereferenceable(40) %1, ptr noundef nonnull %5, i32 noundef 4)
  call void @llvm.lifetime.end.p0(i64 4, ptr nonnull %5) #12
  %12 = call noundef zeroext i1 @_ZNK7Imf_3_46Header7hasTypeEv(ptr noundef nonnull align 8 dereferenceable(49) %2)
  br i1 %12, label %13, label %16

13:                                               ; preds = %3
  %14 = call noundef nonnull align 8 dereferenceable(32) ptr @_ZNK7Imf_3_46Header4typeB5cxx11Ev(ptr noundef nonnull align 8 dereferenceable(49) %2)
  %15 = call noundef zeroext i1 @_ZN7Imf_3_410isDeepDataERKNSt7__cxx1112basic_stringIcSt11char_traitsIcESaIcEEE(ptr noundef nonnull align 8 dereferenceable(32) %14)
  br i1 %15, label %18, label %16

16:                                               ; preds = %13, %3
  %17 = call noundef zeroext i1 @_ZNK7Imf_3_46Header18hasTileDescriptionEv(ptr noundef nonnull align 8 dereferenceable(49) %2)
  %spec.select = select i1 %17, i8 2, i8 0
  br label %18

18:                                               ; preds = %16, %13
  %.0 = phi i8 [ 8, %13 ], [ %spec.select, %16 ]
  %19 = call noundef zeroext i1 @_ZN7Imf_3_413usesLongNamesERKNS_6HeaderE(ptr noundef nonnull align 8 dereferenceable(49) %2)
  call void @llvm.lifetime.start.p0(i64 4, ptr nonnull %4) #12
  store i8 2, ptr %4, align 1, !tbaa !6
  %20 = or disjoint i8 %.0, 4
  %21 = select i1 %19, i8 %20, i8 %.0
  %22 = getelementptr inbounds nuw i8, ptr %4, i64 1
  store i8 %21, ptr %22, align 1, !tbaa !6
  %23 = getelementptr inbounds nuw i8, ptr %4, i64 2
  store i8 0, ptr %23, align 1, !tbaa !6
  %24 = getelementptr inbounds nuw i8, ptr %4, i64 3
  store i8 0, ptr %24, align 1, !tbaa !6
  %25 = load ptr, ptr %1, align 8, !tbaa !3
  %26 = getelementptr inbounds nuw i8, ptr %25, i64 16
  %27 = load ptr, ptr %26, align 8
  call void %27(ptr noundef nonnull align 8 dereferenceable(40) %1, ptr noundef nonnull %4, i32 noundef 4)
  call void @llvm.lifetime.end.p0(i64 4, ptr nonnull %4) #12
  ret void
}